; Function Attrs: mustprogress nofree norecurse nosync nounwind willreturn memory(read, inaccessiblemem: none) uwtable
define hidden noundef zeroext i1 @_ZNK15VLoopReductions24is_marked_reduction_pairEPK4NodeS2_(ptr nocapture noundef nonnull readonly align 8 dereferenceable(40) %0, ptr nocapture noundef readonly %1, ptr noundef readonly %2) local_unnamed_addr #2 align 2 {
  %4 = getelementptr inbounds i8, ptr %0, i64 8
  %5 = getelementptr inbounds i8, ptr %1, i64 40
  %6 = load i32, ptr %5, align 8
  %7 = lshr i32 %6, 5
  %8 = load i32, ptr %4, align 8
  %.not.i.i = icmp ult i32 %7, %8
  br i1 %.not.i.i, label %_ZNK15VLoopReductions19is_marked_reductionEPK4Node.exit, label %_ZNK15VLoopReductions19is_marked_reductionEPK4Node.exit.thread

_ZNK15VLoopReductions19is_marked_reductionEPK4Node.exit: ; preds = %3
  %9 = and i32 %6, 31
  %10 = shl nuw i32 1, %9
  %11 = getelementptr inbounds i8, ptr %0, i64 16
  %12 = load ptr, ptr %11, align 8
  %13 = zext nneg i32 %7 to i64
  %14 = getelementptr inbounds i32, ptr %12, i64 %13
  %15 = load i32, ptr %14, align 4
  %16 = and i32 %15, %10
  %.not = icmp eq i32 %16, 0
  br i1 %.not, label %_ZNK15VLoopReductions19is_marked_reductionEPK4Node.exit.thread, label %17

17:                                               ; preds = %_ZNK15VLoopReductions19is_marked_reductionEPK4Node.exit
  %18 = getelementptr inbounds i8, ptr %2, i64 40
  %19 = load i32, ptr %18, align 8
  %20 = lshr i32 %19, 5
  %.not.i.i12 = icmp ult i32 %20, %8
  br i1 %.not.i.i12, label %_ZNK15VLoopReductions19is_marked_reductionEPK4Node.exit14, label %_ZNK15VLoopReductions19is_marked_reductionEPK4Node.exit.thread

_ZNK15VLoopReductions19is_marked_reductionEPK4Node.exit14: ; preds = %17
  %21 = and i32 %19, 31
  %22 = shl nuw i32 1, %21
  %23 = zext nneg i32 %20 to i64
  %24 = getelementptr inbounds i32, ptr %12, i64 %23
  %25 = load i32, ptr %24, align 4
  %26 = and i32 %25, %22
  %.not17 = icmp eq i32 %26, 0
  br i1 %.not17, label %_ZNK15VLoopReductions19is_marked_reductionEPK4Node.exit.thread, label %27

27:                                               ; preds = %_ZNK15VLoopReductions19is_marked_reductionEPK4Node.exit14
  %28 = getelementptr inbounds i8, ptr %1, i64 16
  %29 = load ptr, ptr %28, align 8
  %30 = getelementptr inbounds i8, ptr %1, i64 32
  %31 = load i32, ptr %30, align 8
  %32 = zext i32 %31 to i64
  %33 = getelementptr inbounds ptr, ptr %29, i64 %32
  %.not21 = icmp eq i32 %31, 0
  br i1 %.not21, label %_ZNK15VLoopReductions19is_marked_reductionEPK4Node.exit.thread, label %.lr.ph

.lr.ph:                                           ; preds = %27, %.lr.ph
  %.01118 = phi ptr [ %36, %.lr.ph ], [ %29, %27 ]
  %34 = load ptr, ptr %.01118, align 8
  %35 = icmp eq ptr %34, %2
  %36 = getelementptr inbounds i8, ptr %.01118, i64 8
  %37 = icmp uge ptr %36, %33
  %or.cond.not = select i1 %35, i1 true, i1 %37
  br i1 %or.cond.not, label %_ZNK15VLoopReductions19is_marked_reductionEPK4Node.exit.thread, label %.lr.ph, !llvm.loop !63

_ZNK15VLoopReductions19is_marked_reductionEPK4Node.exit.thread: ; preds = %.lr.ph, %27, %17, %3, %_ZNK15VLoopReductions19is_marked_reductionEPK4Node.exit, %_ZNK15VLoopReductions19is_marked_reductionEPK4Node.exit14
  %.0 = phi i1 [ false, %_ZNK15VLoopReductions19is_marked_reductionEPK4Node.exit14 ], [ false, %_ZNK15VLoopReductions19is_marked_reductionEPK4Node.exit ], [ false, %3 ], [ false, %17 ], [ false, %27 ], [ %35, %.lr.ph ]
  ret i1 %.0
}